; ModuleID = '57/1240.c'
source_filename = "57/1240.c"
target datalayout = "e-m:e-p270:32:32-p271:32:32-p272:64:64-i64:64-f80:128-n8:16:32:64-S128"
target triple = "x86_64-pc-linux-gnu"

@.str = private unnamed_addr constant [3 x i8] c"%d\00", align 1
@.str.1 = private unnamed_addr constant [3 x i8] c"%s\00", align 1
@.str.2 = private unnamed_addr constant [4 x i8] c"%s\0A\00", align 1

; Function Attrs: noinline nounwind uwtable
define dso_local i32 @main() #0 {
  %1 = alloca i32, align 4
  %2 = alloca i32, align 4
  %3 = alloca i32, align 4
  %4 = alloca i32, align 4
  %5 = alloca i32, align 4
  %6 = alloca i32, align 4
  %7 = alloca [50 x [32 x i8]], align 16
  store i32 0, i32* %1, align 4
  %8 = call i32 (i8*, ...) @__isoc99_scanf(i8* getelementptr inbounds ([3 x i8], [3 x i8]* @.str, i64 0, i64 0), i32* %2)
  store i32 0, i32* %3, align 4
  br label %9

9:                                                ; preds = %19, %0
  %10 = load i32, i32* %3, align 4
  %11 = load i32, i32* %2, align 4
  %12 = icmp slt i32 %10, %11
  br i1 %12, label %13, label %22

13:                                               ; preds = %9
  %14 = load i32, i32* %3, align 4
  %15 = sext i32 %14 to i64
  %16 = getelementptr inbounds [50 x [32 x i8]], [50 x [32 x i8]]* %7, i64 0, i64 %15
  %17 = getelementptr inbounds [32 x i8], [32 x i8]* %16, i64 0, i64 0
  %18 = call i32 (i8*, ...) @__isoc99_scanf(i8* getelementptr inbounds ([3 x i8], [3 x i8]* @.str.1, i64 0, i64 0), i8* %17)
  br label %19

19:                                               ; preds = %13
  %20 = load i32, i32* %3, align 4
  %21 = add nsw i32 %20, 1
  store i32 %21, i32* %3, align 4
  br label %9

22:                                               ; preds = %9
  store i32 0, i32* %4, align 4
  br label %23

23:                                               ; preds = %142, %22
  %24 = load i32, i32* %4, align 4
  %25 = load i32, i32* %2, align 4
  %26 = icmp slt i32 %24, %25
  br i1 %26, label %27, label %145

27:                                               ; preds = %23
  %28 = load i32, i32* %4, align 4
  %29 = sext i32 %28 to i64
  %30 = getelementptr inbounds [50 x [32 x i8]], [50 x [32 x i8]]* %7, i64 0, i64 %29
  %31 = getelementptr inbounds [32 x i8], [32 x i8]* %30, i64 0, i64 0
  %32 = call i64 @strlen(i8* %31) #3
  %33 = trunc i64 %32 to i32
  store i32 %33, i32* %6, align 4
  %34 = load i32, i32* %4, align 4
  %35 = sext i32 %34 to i64
  %36 = getelementptr inbounds [50 x [32 x i8]], [50 x [32 x i8]]* %7, i64 0, i64 %35
  %37 = load i32, i32* %6, align 4
  %38 = sub nsw i32 %37, 2
  %39 = sext i32 %38 to i64
  %40 = getelementptr inbounds [32 x i8], [32 x i8]* %36, i64 0, i64 %39
  %41 = load i8, i8* %40, align 1
  %42 = sext i8 %41 to i32
  %43 = icmp eq i32 %42, 101
  br i1 %43, label %44, label %63

44:                                               ; preds = %27
  %45 = load i32, i32* %4, align 4
  %46 = sext i32 %45 to i64
  %47 = getelementptr inbounds [50 x [32 x i8]], [50 x [32 x i8]]* %7, i64 0, i64 %46
  %48 = load i32, i32* %6, align 4
  %49 = sub nsw i32 %48, 1
  %50 = sext i32 %49 to i64
  %51 = getelementptr inbounds [32 x i8], [32 x i8]* %47, i64 0, i64 %50
  %52 = load i8, i8* %51, align 1
  %53 = sext i8 %52 to i32
  %54 = icmp eq i32 %53, 114
  br i1 %54, label %55, label %63

55:                                               ; preds = %44
  %56 = load i32, i32* %4, align 4
  %57 = sext i32 %56 to i64
  %58 = getelementptr inbounds [50 x [32 x i8]], [50 x [32 x i8]]* %7, i64 0, i64 %57
  %59 = load i32, i32* %6, align 4
  %60 = sub nsw i32 %59, 2
  %61 = sext i32 %60 to i64
  %62 = getelementptr inbounds [32 x i8], [32 x i8]* %58, i64 0, i64 %61
  store i8 0, i8* %62, align 1
  br label %136

63:                                               ; preds = %44, %27
  %64 = load i32, i32* %4, align 4
  %65 = sext i32 %64 to i64
  %66 = getelementptr inbounds [50 x [32 x i8]], [50 x [32 x i8]]* %7, i64 0, i64 %65
  %67 = load i32, i32* %6, align 4
  %68 = sub nsw i32 %67, 2
  %69 = sext i32 %68 to i64
  %70 = getelementptr inbounds [32 x i8], [32 x i8]* %66, i64 0, i64 %69
  %71 = load i8, i8* %70, align 1
  %72 = sext i8 %71 to i32
  %73 = icmp eq i32 %72, 108
  br i1 %73, label %74, label %93

74:                                               ; preds = %63
  %75 = load i32, i32* %4, align 4
  %76 = sext i32 %75 to i64
  %77 = getelementptr inbounds [50 x [32 x i8]], [50 x [32 x i8]]* %7, i64 0, i64 %76
  %78 = load i32, i32* %6, align 4
  %79 = sub nsw i32 %78, 1
  %80 = sext i32 %79 to i64
  %81 = getelementptr inbounds [32 x i8], [32 x i8]* %77, i64 0, i64 %80
  %82 = load i8, i8* %81, align 1
  %83 = sext i8 %82 to i32
  %84 = icmp eq i32 %83, 121
  br i1 %84, label %85, label %93

85:                                               ; preds = %74
  %86 = load i32, i32* %4, align 4
  %87 = sext i32 %86 to i64
  %88 = getelementptr inbounds [50 x [32 x i8]], [50 x [32 x i8]]* %7, i64 0, i64 %87
  %89 = load i32, i32* %6, align 4
  %90 = sub nsw i32 %89, 2
  %91 = sext i32 %90 to i64
  %92 = getelementptr inbounds [32 x i8], [32 x i8]* %88, i64 0, i64 %91
  store i8 0, i8* %92, align 1
  br label %135

93:                                               ; preds = %74, %63
  %94 = load i32, i32* %4, align 4
  %95 = sext i32 %94 to i64
  %96 = getelementptr inbounds [50 x [32 x i8]], [50 x [32 x i8]]* %7, i64 0, i64 %95
  %97 = load i32, i32* %6, align 4
  %98 = sub nsw i32 %97, 3
  %99 = sext i32 %98 to i64
  %100 = getelementptr inbounds [32 x i8], [32 x i8]* %96, i64 0, i64 %99
  %101 = load i8, i8* %100, align 1
  %102 = sext i8 %101 to i32
  %103 = icmp eq i32 %102, 105
  br i1 %103, label %104, label %134

104:                                              ; preds = %93
  %105 = load i32, i32* %4, align 4
  %106 = sext i32 %105 to i64
  %107 = getelementptr inbounds [50 x [32 x i8]], [50 x [32 x i8]]* %7, i64 0, i64 %106
  %108 = load i32, i32* %6, align 4
  %109 = sub nsw i32 %108, 2
  %110 = sext i32 %109 to i64
  %111 = getelementptr inbounds [32 x i8], [32 x i8]* %107, i64 0, i64 %110
  %112 = load i8, i8* %111, align 1
  %113 = sext i8 %112 to i32
  %114 = icmp eq i32 %113, 110
  br i1 %114, label %115, label %134

115:                                              ; preds = %104
  %116 = load i32, i32* %4, align 4
  %117 = sext i32 %116 to i64
  %118 = getelementptr inbounds [50 x [32 x i8]], [50 x [32 x i8]]* %7, i64 0, i64 %117
  %119 = load i32, i32* %6, align 4
  %120 = sub nsw i32 %119, 1
  %121 = sext i32 %120 to i64
  %122 = getelementptr inbounds [32 x i8], [32 x i8]* %118, i64 0, i64 %121
  %123 = load i8, i8* %122, align 1
  %124 = sext i8 %123 to i32
  %125 = icmp eq i32 %124, 103
  br i1 %125, label %126, label %134

126:                                              ; preds = %115
  %127 = load i32, i32* %4, align 4
  %128 = sext i32 %127 to i64
  %129 = getelementptr inbounds [50 x [32 x i8]], [50 x [32 x i8]]* %7, i64 0, i64 %128
  %130 = load i32, i32* %6, align 4
  %131 = sub nsw i32 %130, 3
  %132 = sext i32 %131 to i64
  %133 = getelementptr inbounds [32 x i8], [32 x i8]* %129, i64 0, i64 %132
  store i8 0, i8* %133, align 1
  br label %134

134:                                              ; preds = %126, %115, %104, %93
  br label %135

135:                                              ; preds = %134, %85
  br label %136

136:                                              ; preds = %135, %55
  %137 = load i32, i32* %4, align 4
  %138 = sext i32 %137 to i64
  %139 = getelementptr inbounds [50 x [32 x i8]], [50 x [32 x i8]]* %7, i64 0, i64 %138
  %140 = getelementptr inbounds [32 x i8], [32 x i8]* %139, i64 0, i64 0
  %141 = call i32 (i8*, ...) @printf(i8* getelementptr inbounds ([4 x i8], [4 x i8]* @.str.2, i64 0, i64 0), i8* %140)
  br label %142

142:                                              ; preds = %136
  %143 = load i32, i32* %4, align 4
  %144 = add nsw i32 %143, 1
  store i32 %144, i32* %4, align 4
  br label %23

145:                                              ; preds = %23
  ret i32 0
}

declare dso_local i32 @__isoc99_scanf(i8*, ...) #1

; Function Attrs: nounwind readonly
declare dso_local i64 @strlen(i8*) #2

declare dso_local i32 @printf(i8*, ...) #1


!llvm.module.flags = !{!0}
!llvm.ident = !{!1}

!0 = !{i32 1, !"wchar_size", i32 4}
!1 = !{!"clang version 10.0.0-4ubuntu1 "}
